(lp0
S'salary'
p1
aS'to_messages'
p2
aS'deferral_payments'
p3
aS'fraction_from_poi'
p4
aS'exercised_stock_options'
p5
aS'restricted_stock_deferred'
p6
aS'total_stock_value'
p7
aS'shared_receipt_with_poi'
p8
aS'loan_advances'
p9
aS'director_fees'
p10
aS'long_term_incentive'
p11
aS'expenses'
p12
aS'restricted_stock'
p13
aS'payments_stock_total'
p14
a.